; Function Attrs: mustprogress noreturn uwtable
define dso_local void @_ZN4absl12log_internal10LogMessage3DieEv(ptr noundef nonnull readonly align 8 captures(none) dereferenceable(16) %0) local_unnamed_addr #17 align 2 {
  tail call void @_ZN4absl12log_internal13FlushLogSinksEv()
  %2 = getelementptr inbounds nuw i8, ptr %0, i64 8
  %3 = load ptr, ptr %2, align 8, !tbaa !4
  %4 = getelementptr inbounds nuw i8, ptr %3, i64 137
  %5 = load i8, ptr %4, align 1, !tbaa !111, !range !41, !noundef !42
  %6 = trunc nuw i8 %5 to i1
  br i1 %6, label %7, label %8

7:                                                ; preds = %1
  tail call void @_ZN4absl12log_internal10LogMessage11FailQuietlyEv() #34
  unreachable

8:                                                ; preds = %1
  tail call void @_ZN4absl12log_internal10LogMessage21FailWithoutStackTraceEv() #34
  unreachable
}